target datalayout = "e-m:e-p270:32:32-p271:32:32-p272:64:64-i64:64-i128:128-f80:128-n8:16:32:64-S128"
target triple = "x86_64-pc-linux-gnu"

%struct.evp_mac_st = type { ptr, i32, ptr, ptr, %struct.CRYPTO_REF_COUNT, ptr, ptr, ptr, ptr, ptr, ptr, ptr, ptr, ptr, ptr, ptr, ptr, ptr }
%struct.CRYPTO_REF_COUNT = type { i32 }
%struct.evp_mac_ctx_st = type { ptr, ptr }

; Function Attrs: nounwind uwtable
define ptr @EVP_MAC_get0_provider(ptr noundef %0) #0 {
  %2 = alloca ptr, align 8
  store ptr %0, ptr %2, align 8, !tbaa !20
  %3 = load ptr, ptr %2, align 8, !tbaa !20
  %4 = getelementptr inbounds nuw %struct.evp_mac_st, ptr %3, i32 0, i32 0
  %5 = load ptr, ptr %4, align 8, !tbaa !45
  ret ptr %5
}

; Function Attrs: nounwind uwtable
define ptr @EVP_MAC_CTX_gettable_params(ptr noundef %0) #0 {
  %2 = alloca ptr, align 8
  %3 = alloca ptr, align 8
  %4 = alloca ptr, align 8
  %5 = alloca i32, align 4
  store ptr %0, ptr %3, align 8, !tbaa !47
  call void @llvm.lifetime.start.p0(i64 8, ptr %4) #4
  %6 = load ptr, ptr %3, align 8, !tbaa !47
  %7 = getelementptr inbounds nuw %struct.evp_mac_ctx_st, ptr %6, i32 0, i32 0
  %8 = load ptr, ptr %7, align 8, !tbaa !49
  %9 = getelementptr inbounds nuw %struct.evp_mac_st, ptr %8, i32 0, i32 12
  %10 = load ptr, ptr %9, align 8, !tbaa !37
  %11 = icmp eq ptr %10, null
  br i1 %11, label %12, label %13

12:                                               ; preds = %1
  store ptr null, ptr %2, align 8
  store i32 1, ptr %5, align 4
  br label %29

13:                                               ; preds = %1
  %14 = load ptr, ptr %3, align 8, !tbaa !47
  %15 = getelementptr inbounds nuw %struct.evp_mac_ctx_st, ptr %14, i32 0, i32 0
  %16 = load ptr, ptr %15, align 8, !tbaa !49
  %17 = call ptr @EVP_MAC_get0_provider(ptr noundef %16)
  %18 = call ptr @ossl_provider_ctx(ptr noundef %17)
  store ptr %18, ptr %4, align 8, !tbaa !46
  %19 = load ptr, ptr %3, align 8, !tbaa !47
  %20 = getelementptr inbounds nuw %struct.evp_mac_ctx_st, ptr %19, i32 0, i32 0
  %21 = load ptr, ptr %20, align 8, !tbaa !49
  %22 = getelementptr inbounds nuw %struct.evp_mac_st, ptr %21, i32 0, i32 12
  %23 = load ptr, ptr %22, align 8, !tbaa !37
  %24 = load ptr, ptr %3, align 8, !tbaa !47
  %25 = getelementptr inbounds nuw %struct.evp_mac_ctx_st, ptr %24, i32 0, i32 1
  %26 = load ptr, ptr %25, align 8, !tbaa !51
  %27 = load ptr, ptr %4, align 8, !tbaa !46
  %28 = call ptr %23(ptr noundef %26, ptr noundef %27)
  store ptr %28, ptr %2, align 8
  store i32 1, ptr %5, align 4
  br label %29

29:                                               ; preds = %13, %12
  call void @llvm.lifetime.end.p0(i64 8, ptr %4) #4
  %30 = load ptr, ptr %2, align 8
  ret ptr %30
}